; Function Attrs: nounwind uwtable
define range(i32 -29, 1) i32 @pmix_bfrops_base_pack_int64(ptr noundef readnone captures(none) %0, ptr noundef %1, ptr noundef readonly captures(none) %2, i32 noundef %3, i16 noundef zeroext %4) local_unnamed_addr #0 {
  %6 = sext i32 %3 to i64
  %7 = shl nsw i64 %6, 3
  %8 = load i32, ptr getelementptr inbounds nuw (i8, ptr @pmix_bfrops_base_framework, i64 76), align 4, !tbaa !24
  %or.cond = icmp ult i32 %8, 64
  br i1 %or.cond, label %9, label %15

9:                                                ; preds = %5
  %10 = zext nneg i32 %8 to i64
  %11 = getelementptr inbounds nuw [0 x %struct.pmix_output_desc_t], ptr @pmix_output_info, i64 0, i64 %10, i32 2
  %12 = load i32, ptr %11, align 4, !tbaa !30
  %13 = icmp sgt i32 %12, 19
  br i1 %13, label %14, label %15

14:                                               ; preds = %9
  tail call void (i32, ptr, ...) @pmix_output(i32 noundef %8, ptr noundef nonnull @.str.7, i32 noundef %3) #8
  br label %15

15:                                               ; preds = %14, %9, %5
  %16 = tail call ptr @pmix_bfrop_buffer_extend(ptr noundef %1, i64 noundef %7) #8
  %17 = icmp eq ptr %16, null
  br i1 %17, label %28, label %.preheader

.preheader:                                       ; preds = %15
  %18 = icmp sgt i32 %3, 0
  br i1 %18, label %.lr.ph.preheader, label %._crit_edge

.lr.ph.preheader:                                 ; preds = %.preheader
  %wide.trip.count = zext nneg i32 %3 to i64
  br label %.lr.ph

.lr.ph:                                           ; preds = %.lr.ph.preheader, %.lr.ph
  %indvars.iv = phi i64 [ 0, %.lr.ph.preheader ], [ %indvars.iv.next, %.lr.ph ]
  %.01823 = phi ptr [ %16, %.lr.ph.preheader ], [ %21, %.lr.ph ]
  %19 = shl nuw nsw i64 %indvars.iv, 3
  %20 = getelementptr inbounds nuw i8, ptr %2, i64 %19
  %.0.copyload = load i64, ptr %20, align 1
  %.sroa.0.0.insert.insert.i = tail call noundef i64 @llvm.bswap.i64(i64 %.0.copyload)
  store i64 %.sroa.0.0.insert.insert.i, ptr %.01823, align 1
  %21 = getelementptr inbounds nuw i8, ptr %.01823, i64 8
  %indvars.iv.next = add nuw nsw i64 %indvars.iv, 1
  %exitcond.not = icmp eq i64 %indvars.iv.next, %wide.trip.count
  br i1 %exitcond.not, label %._crit_edge, label %.lr.ph, !llvm.loop !44

._crit_edge:                                      ; preds = %.lr.ph, %.preheader
  %22 = getelementptr inbounds nuw i8, ptr %1, i64 136
  %23 = load ptr, ptr %22, align 8, !tbaa !39
  %24 = getelementptr inbounds nuw i8, ptr %23, i64 %7
  store ptr %24, ptr %22, align 8, !tbaa !39
  %25 = getelementptr inbounds nuw i8, ptr %1, i64 160
  %26 = load i64, ptr %25, align 8, !tbaa !40
  %27 = add i64 %26, %7
  store i64 %27, ptr %25, align 8, !tbaa !40
  br label %28

28:                                               ; preds = %15, %._crit_edge
  %.0 = phi i32 [ 0, %._crit_edge ], [ -29, %15 ]
  ret i32 %.0
}